target datalayout = "e-m:e-p270:32:32-p271:32:32-p272:64:64-i64:64-i128:128-f80:128-n8:16:32:64-S128"
target triple = "x86_64-pc-linux-gnu"

%struct.IDAMemRec = type { ptr, double, ptr, ptr, i32, double, double, ptr, i32, i32, ptr, ptr, i32, i32, [6 x ptr], [6 x double], [6 x double], [6 x double], [6 x double], [6 x double], ptr, ptr, ptr, ptr, ptr, ptr, ptr, ptr, ptr, ptr, ptr, ptr, ptr, ptr, ptr, ptr, ptr, double, ptr, ptr, i32, i32, i32, i32, i32, i32, i32, i32, double, double, double, i32, double, i32, i32, i32, i32, i32, double, double, double, double, double, double, double, double, double, double, double, double, double, double, double, double, i32, i32, i32, i32, i64, double, double, double, double, double, double, double, double, double, i64, i64, i64, i64, i64, i64, i64, i64, i64, i64, i64, double, i32, i32, i32, i32, i32, ptr, i32, ptr, ptr, ptr, ptr, ptr, ptr, ptr, double, i32, ptr, i32, ptr, ptr, double, double, double, ptr, ptr, ptr, double, double, i32, i32, i64, ptr, i32, [6 x double], [5 x double], [6 x ptr], [6 x ptr] }
%struct.IDALsMemRec = type { i32, i32, i32, ptr, ptr, ptr, ptr, ptr, ptr, ptr, ptr, ptr, ptr, i32, double, double, double, i64, i64, i64, i64, i64, i64, i64, i64, i64, i64, i64, i64, i64, i64, double, i32, ptr, ptr, ptr, ptr, i32, ptr, ptr, ptr, ptr }

@.str = private unnamed_addr constant [112 x i8] c"generated/home/dtcxzyw/WorkSpace/Projects/compilers/llvm-opt-benchmark/bench/sundials/sundials/src/ida/ida_ls.c\00", align 1
@.str.30 = private unnamed_addr constant [30 x i8] c"Linear solver memory is NULL.\00", align 1
@__func__.idaLsSetup = private unnamed_addr constant [11 x i8] c"idaLsSetup\00", align 1
@.str.33 = private unnamed_addr constant [58 x i8] c"The SUNMatZero routine failed in an unrecoverable manner.\00", align 1
@.str.34 = private unnamed_addr constant [56 x i8] c"The Jacobian routine failed in an unrecoverable manner.\00", align 1

; Function Attrs: nounwind uwtable
define i32 @idaLsSetup(ptr noundef %0, ptr noundef %1, ptr noundef %2, ptr noundef %3, ptr noundef %4, ptr noundef %5, ptr noundef %6) #0 {
  %8 = alloca i32, align 4
  %9 = alloca ptr, align 8
  %10 = alloca ptr, align 8
  %11 = alloca ptr, align 8
  %12 = alloca ptr, align 8
  %13 = alloca ptr, align 8
  %14 = alloca ptr, align 8
  %15 = alloca ptr, align 8
  %16 = alloca ptr, align 8
  %17 = alloca i32, align 4
  %18 = alloca i32, align 4
  store ptr %0, ptr %9, align 8, !tbaa !11
  store ptr %1, ptr %10, align 8, !tbaa !81
  store ptr %2, ptr %11, align 8, !tbaa !81
  store ptr %3, ptr %12, align 8, !tbaa !81
  store ptr %4, ptr %13, align 8, !tbaa !81
  store ptr %5, ptr %14, align 8, !tbaa !81
  store ptr %6, ptr %15, align 8, !tbaa !81
  call void @llvm.lifetime.start.p0(i64 8, ptr %16) #7
  call void @llvm.lifetime.start.p0(i64 4, ptr %17) #7
  %19 = load ptr, ptr %9, align 8, !tbaa !11
  %20 = getelementptr inbounds nuw %struct.IDAMemRec, ptr %19, i32 0, i32 113
  %21 = load ptr, ptr %20, align 8, !tbaa !75
  %22 = icmp eq ptr %21, null
  br i1 %22, label %23, label %25

23:                                               ; preds = %7
  %24 = load ptr, ptr %9, align 8, !tbaa !11
  call void (ptr, i32, i32, ptr, ptr, ptr, ...) @IDAProcessError(ptr noundef %24, i32 noundef -2, i32 noundef 1361, ptr noundef @__func__.idaLsSetup, ptr noundef @.str, ptr noundef @.str.30)
  store i32 -2, ptr %8, align 4
  store i32 1, ptr %18, align 4
  br label %138

25:                                               ; preds = %7
  %26 = load ptr, ptr %9, align 8, !tbaa !11
  %27 = getelementptr inbounds nuw %struct.IDAMemRec, ptr %26, i32 0, i32 113
  %28 = load ptr, ptr %27, align 8, !tbaa !75
  store ptr %28, ptr %16, align 8, !tbaa !45
  %29 = load ptr, ptr %16, align 8, !tbaa !45
  %30 = getelementptr inbounds nuw %struct.IDALsMemRec, ptr %29, i32 0, i32 5
  %31 = load ptr, ptr %30, align 8, !tbaa !47
  %32 = call i32 @SUNLinSolGetType(ptr noundef %31)
  %33 = icmp eq i32 %32, 3
  br i1 %33, label %34, label %40

34:                                               ; preds = %25
  %35 = load ptr, ptr %16, align 8, !tbaa !45
  %36 = getelementptr inbounds nuw %struct.IDALsMemRec, ptr %35, i32 0, i32 32
  store i32 0, ptr %36, align 8, !tbaa !68
  %37 = load ptr, ptr %16, align 8, !tbaa !45
  %38 = getelementptr inbounds nuw %struct.IDALsMemRec, ptr %37, i32 0, i32 32
  %39 = load i32, ptr %38, align 8, !tbaa !68
  store i32 %39, ptr %8, align 4
  store i32 1, ptr %18, align 4
  br label %138

40:                                               ; preds = %25
  %41 = load ptr, ptr %10, align 8, !tbaa !81
  %42 = load ptr, ptr %16, align 8, !tbaa !45
  %43 = getelementptr inbounds nuw %struct.IDALsMemRec, ptr %42, i32 0, i32 10
  store ptr %41, ptr %43, align 8, !tbaa !82
  %44 = load ptr, ptr %11, align 8, !tbaa !81
  %45 = load ptr, ptr %16, align 8, !tbaa !45
  %46 = getelementptr inbounds nuw %struct.IDALsMemRec, ptr %45, i32 0, i32 11
  store ptr %44, ptr %46, align 8, !tbaa !83
  %47 = load ptr, ptr %12, align 8, !tbaa !81
  %48 = load ptr, ptr %16, align 8, !tbaa !45
  %49 = getelementptr inbounds nuw %struct.IDALsMemRec, ptr %48, i32 0, i32 12
  store ptr %47, ptr %49, align 8, !tbaa !84
  %50 = load ptr, ptr %9, align 8, !tbaa !11
  %51 = getelementptr inbounds nuw %struct.IDAMemRec, ptr %50, i32 0, i32 88
  %52 = load i64, ptr %51, align 8, !tbaa !85
  %53 = load ptr, ptr %16, align 8, !tbaa !45
  %54 = getelementptr inbounds nuw %struct.IDALsMemRec, ptr %53, i32 0, i32 30
  store i64 %52, ptr %54, align 8, !tbaa !86
  %55 = load ptr, ptr %9, align 8, !tbaa !11
  %56 = getelementptr inbounds nuw %struct.IDAMemRec, ptr %55, i32 0, i32 63
  %57 = load double, ptr %56, align 8, !tbaa !87
  %58 = load ptr, ptr %16, align 8, !tbaa !45
  %59 = getelementptr inbounds nuw %struct.IDALsMemRec, ptr %58, i32 0, i32 31
  store double %57, ptr %59, align 8, !tbaa !88
  %60 = load ptr, ptr %16, align 8, !tbaa !45
  %61 = getelementptr inbounds nuw %struct.IDALsMemRec, ptr %60, i32 0, i32 6
  %62 = load ptr, ptr %61, align 8, !tbaa !51
  %63 = icmp ne ptr %62, null
  br i1 %63, label %64, label %125

64:                                               ; preds = %40
  %65 = load ptr, ptr %16, align 8, !tbaa !45
  %66 = getelementptr inbounds nuw %struct.IDALsMemRec, ptr %65, i32 0, i32 17
  %67 = load i64, ptr %66, align 8, !tbaa !89
  %68 = add nsw i64 %67, 1
  store i64 %68, ptr %66, align 8, !tbaa !89
  %69 = load ptr, ptr %16, align 8, !tbaa !45
  %70 = getelementptr inbounds nuw %struct.IDALsMemRec, ptr %69, i32 0, i32 5
  %71 = load ptr, ptr %70, align 8, !tbaa !47
  %72 = call i32 @SUNLinSolGetType(ptr noundef %71)
  %73 = icmp eq i32 %72, 0
  br i1 %73, label %74, label %89

74:                                               ; preds = %64
  %75 = load ptr, ptr %16, align 8, !tbaa !45
  %76 = getelementptr inbounds nuw %struct.IDALsMemRec, ptr %75, i32 0, i32 6
  %77 = load ptr, ptr %76, align 8, !tbaa !51
  %78 = call i32 @SUNMatZero(ptr noundef %77)
  store i32 %78, ptr %17, align 4, !tbaa !20
  %79 = load i32, ptr %17, align 4, !tbaa !20
  %80 = icmp ne i32 %79, 0
  br i1 %80, label %81, label %88

81:                                               ; preds = %74
  %82 = load ptr, ptr %9, align 8, !tbaa !11
  call void (ptr, i32, i32, ptr, ptr, ptr, ...) @IDAProcessError(ptr noundef %82, i32 noundef -8, i32 noundef 1395, ptr noundef @__func__.idaLsSetup, ptr noundef @.str, ptr noundef @.str.33)
  %83 = load ptr, ptr %16, align 8, !tbaa !45
  %84 = getelementptr inbounds nuw %struct.IDALsMemRec, ptr %83, i32 0, i32 32
  store i32 -8, ptr %84, align 8, !tbaa !68
  %85 = load ptr, ptr %16, align 8, !tbaa !45
  %86 = getelementptr inbounds nuw %struct.IDALsMemRec, ptr %85, i32 0, i32 32
  %87 = load i32, ptr %86, align 8, !tbaa !68
  store i32 %87, ptr %8, align 4
  store i32 1, ptr %18, align 4
  br label %138

88:                                               ; preds = %74
  br label %89

89:                                               ; preds = %88, %64
  %90 = load ptr, ptr %16, align 8, !tbaa !45
  %91 = getelementptr inbounds nuw %struct.IDALsMemRec, ptr %90, i32 0, i32 3
  %92 = load ptr, ptr %91, align 8, !tbaa !53
  %93 = load ptr, ptr %9, align 8, !tbaa !11
  %94 = getelementptr inbounds nuw %struct.IDAMemRec, ptr %93, i32 0, i32 63
  %95 = load double, ptr %94, align 8, !tbaa !87
  %96 = load ptr, ptr %9, align 8, !tbaa !11
  %97 = getelementptr inbounds nuw %struct.IDAMemRec, ptr %96, i32 0, i32 65
  %98 = load double, ptr %97, align 8, !tbaa !90
  %99 = load ptr, ptr %10, align 8, !tbaa !81
  %100 = load ptr, ptr %11, align 8, !tbaa !81
  %101 = load ptr, ptr %12, align 8, !tbaa !81
  %102 = load ptr, ptr %16, align 8, !tbaa !45
  %103 = getelementptr inbounds nuw %struct.IDALsMemRec, ptr %102, i32 0, i32 6
  %104 = load ptr, ptr %103, align 8, !tbaa !51
  %105 = load ptr, ptr %16, align 8, !tbaa !45
  %106 = getelementptr inbounds nuw %struct.IDALsMemRec, ptr %105, i32 0, i32 4
  %107 = load ptr, ptr %106, align 8, !tbaa !54
  %108 = load ptr, ptr %13, align 8, !tbaa !81
  %109 = load ptr, ptr %14, align 8, !tbaa !81
  %110 = load ptr, ptr %15, align 8, !tbaa !81
  %111 = call i32 %92(double noundef %95, double noundef %98, ptr noundef %99, ptr noundef %100, ptr noundef %101, ptr noundef %104, ptr noundef %107, ptr noundef %108, ptr noundef %109, ptr noundef %110)
  store i32 %111, ptr %17, align 4, !tbaa !20
  %112 = load i32, ptr %17, align 4, !tbaa !20
  %113 = icmp slt i32 %112, 0
  br i1 %113, label %114, label %118

114:                                              ; preds = %89
  %115 = load ptr, ptr %9, align 8, !tbaa !11
  call void (ptr, i32, i32, ptr, ptr, ptr, ...) @IDAProcessError(ptr noundef %115, i32 noundef -6, i32 noundef 1407, ptr noundef @__func__.idaLsSetup, ptr noundef @.str, ptr noundef @.str.34)
  %116 = load ptr, ptr %16, align 8, !tbaa !45
  %117 = getelementptr inbounds nuw %struct.IDALsMemRec, ptr %116, i32 0, i32 32
  store i32 -6, ptr %117, align 8, !tbaa !68
  store i32 -1, ptr %8, align 4
  store i32 1, ptr %18, align 4
  br label %138

118:                                              ; preds = %89
  %119 = load i32, ptr %17, align 4, !tbaa !20
  %120 = icmp sgt i32 %119, 0
  br i1 %120, label %121, label %124

121:                                              ; preds = %118
  %122 = load ptr, ptr %16, align 8, !tbaa !45
  %123 = getelementptr inbounds nuw %struct.IDALsMemRec, ptr %122, i32 0, i32 32
  store i32 -7, ptr %123, align 8, !tbaa !68
  store i32 1, ptr %8, align 4
  store i32 1, ptr %18, align 4
  br label %138

124:                                              ; preds = %118
  br label %125

125:                                              ; preds = %124, %40
  %126 = load ptr, ptr %16, align 8, !tbaa !45
  %127 = getelementptr inbounds nuw %struct.IDALsMemRec, ptr %126, i32 0, i32 5
  %128 = load ptr, ptr %127, align 8, !tbaa !47
  %129 = load ptr, ptr %16, align 8, !tbaa !45
  %130 = getelementptr inbounds nuw %struct.IDALsMemRec, ptr %129, i32 0, i32 6
  %131 = load ptr, ptr %130, align 8, !tbaa !51
  %132 = call i32 @SUNLinSolSetup(ptr noundef %128, ptr noundef %131)
  %133 = load ptr, ptr %16, align 8, !tbaa !45
  %134 = getelementptr inbounds nuw %struct.IDALsMemRec, ptr %133, i32 0, i32 32
  store i32 %132, ptr %134, align 8, !tbaa !68
  %135 = load ptr, ptr %16, align 8, !tbaa !45
  %136 = getelementptr inbounds nuw %struct.IDALsMemRec, ptr %135, i32 0, i32 32
  %137 = load i32, ptr %136, align 8, !tbaa !68
  store i32 %137, ptr %8, align 4
  store i32 1, ptr %18, align 4
  br label %138

138:                                              ; preds = %125, %121, %114, %81, %34, %23
  call void @llvm.lifetime.end.p0(i64 4, ptr %17) #7
  call void @llvm.lifetime.end.p0(i64 8, ptr %16) #7
  %139 = load i32, ptr %8, align 4
  ret i32 %139
}