; Function Attrs: nounwind uwtable
define i32 @idaLsSetup(ptr noundef %0, ptr noundef %1, ptr noundef %2, ptr noundef %3, ptr noundef %4, ptr noundef %5, ptr noundef %6) #0 {
  %8 = getelementptr inbounds nuw i8, ptr %0, i64 1048
  %9 = load ptr, ptr %8, align 8, !tbaa !65
  %10 = icmp eq ptr %9, null
  br i1 %10, label %11, label %12

11:                                               ; preds = %7
  tail call void (ptr, i32, i32, ptr, ptr, ptr, ...) @IDAProcessError(ptr noundef nonnull %0, i32 noundef -2, i32 noundef 1361, ptr noundef nonnull @__func__.idaLsSetup, ptr noundef nonnull @.str, ptr noundef nonnull @.str.30) #13
  br label %64

12:                                               ; preds = %7
  %13 = getelementptr inbounds nuw i8, ptr %9, i64 32
  %14 = load ptr, ptr %13, align 8, !tbaa !37
  %15 = tail call i32 @SUNLinSolGetType(ptr noundef %14) #13
  %16 = icmp eq i32 %15, 3
  br i1 %16, label %17, label %19

17:                                               ; preds = %12
  %18 = getelementptr inbounds nuw i8, ptr %9, i64 248
  store i32 0, ptr %18, align 8, !tbaa !57
  br label %64

19:                                               ; preds = %12
  %20 = getelementptr inbounds nuw i8, ptr %9, i64 72
  store ptr %1, ptr %20, align 8, !tbaa !72
  %21 = getelementptr inbounds nuw i8, ptr %9, i64 80
  store ptr %2, ptr %21, align 8, !tbaa !73
  %22 = getelementptr inbounds nuw i8, ptr %9, i64 88
  store ptr %3, ptr %22, align 8, !tbaa !74
  %23 = getelementptr inbounds nuw i8, ptr %0, i64 864
  %24 = load i64, ptr %23, align 8, !tbaa !75
  %25 = getelementptr inbounds nuw i8, ptr %9, i64 232
  store i64 %24, ptr %25, align 8, !tbaa !76
  %26 = getelementptr inbounds nuw i8, ptr %0, i64 680
  %27 = load double, ptr %26, align 8, !tbaa !77
  %28 = getelementptr inbounds nuw i8, ptr %9, i64 240
  store double %27, ptr %28, align 8, !tbaa !78
  %29 = getelementptr inbounds nuw i8, ptr %9, i64 40
  %30 = load ptr, ptr %29, align 8, !tbaa !43
  %.not = icmp eq ptr %30, null
  br i1 %.not, label %59, label %31

31:                                               ; preds = %19
  %32 = getelementptr inbounds nuw i8, ptr %9, i64 128
  %33 = load i64, ptr %32, align 8, !tbaa !79
  %34 = add nsw i64 %33, 1
  store i64 %34, ptr %32, align 8, !tbaa !79
  %35 = load ptr, ptr %13, align 8, !tbaa !37
  %36 = tail call i32 @SUNLinSolGetType(ptr noundef %35) #13
  %37 = icmp eq i32 %36, 0
  br i1 %37, label %38, label %43

38:                                               ; preds = %31
  %39 = load ptr, ptr %29, align 8, !tbaa !43
  %40 = tail call i32 @SUNMatZero(ptr noundef %39) #13
  %.not46 = icmp eq i32 %40, 0
  br i1 %.not46, label %43, label %41

41:                                               ; preds = %38
  tail call void (ptr, i32, i32, ptr, ptr, ptr, ...) @IDAProcessError(ptr noundef nonnull %0, i32 noundef -8, i32 noundef 1395, ptr noundef nonnull @__func__.idaLsSetup, ptr noundef nonnull @.str, ptr noundef nonnull @.str.33) #13
  %42 = getelementptr inbounds nuw i8, ptr %9, i64 248
  store i32 -8, ptr %42, align 8, !tbaa !57
  br label %64

43:                                               ; preds = %38, %31
  %44 = getelementptr inbounds nuw i8, ptr %9, i64 16
  %45 = load ptr, ptr %44, align 8, !tbaa !45
  %46 = load double, ptr %26, align 8, !tbaa !77
  %47 = getelementptr inbounds nuw i8, ptr %0, i64 696
  %48 = load double, ptr %47, align 8, !tbaa !80
  %49 = load ptr, ptr %29, align 8, !tbaa !43
  %50 = getelementptr inbounds nuw i8, ptr %9, i64 24
  %51 = load ptr, ptr %50, align 8, !tbaa !46
  %52 = tail call i32 %45(double noundef %46, double noundef %48, ptr noundef %1, ptr noundef %2, ptr noundef %3, ptr noundef %49, ptr noundef %51, ptr noundef %4, ptr noundef %5, ptr noundef %6) #13
  %53 = icmp slt i32 %52, 0
  br i1 %53, label %54, label %56

54:                                               ; preds = %43
  tail call void (ptr, i32, i32, ptr, ptr, ptr, ...) @IDAProcessError(ptr noundef nonnull %0, i32 noundef -6, i32 noundef 1407, ptr noundef nonnull @__func__.idaLsSetup, ptr noundef nonnull @.str, ptr noundef nonnull @.str.34) #13
  %55 = getelementptr inbounds nuw i8, ptr %9, i64 248
  store i32 -6, ptr %55, align 8, !tbaa !57
  br label %64

56:                                               ; preds = %43
  %.not47 = icmp eq i32 %52, 0
  br i1 %.not47, label %._crit_edge, label %57

._crit_edge:                                      ; preds = %56
  %.pre = load ptr, ptr %29, align 8, !tbaa !43
  br label %59

57:                                               ; preds = %56
  %58 = getelementptr inbounds nuw i8, ptr %9, i64 248
  store i32 -7, ptr %58, align 8, !tbaa !57
  br label %64

59:                                               ; preds = %._crit_edge, %19
  %60 = phi ptr [ %.pre, %._crit_edge ], [ null, %19 ]
  %61 = load ptr, ptr %13, align 8, !tbaa !37
  %62 = tail call i32 @SUNLinSolSetup(ptr noundef %61, ptr noundef %60) #13
  %63 = getelementptr inbounds nuw i8, ptr %9, i64 248
  store i32 %62, ptr %63, align 8, !tbaa !57
  br label %64

64:                                               ; preds = %59, %57, %54, %41, %17, %11
  %.0 = phi i32 [ -2, %11 ], [ 0, %17 ], [ -8, %41 ], [ -1, %54 ], [ 1, %57 ], [ %62, %59 ]
  ret i32 %.0
}